; Function Attrs: nounwind uwtable
define dso_local noundef i32 @dbuf_putc(ptr nocapture noundef %0, i8 noundef zeroext %1) local_unnamed_addr #8 {
  %3 = getelementptr inbounds i8, ptr %0, i64 8
  %4 = load i64, ptr %3, align 8
  %5 = add i64 %4, 1
  %6 = getelementptr inbounds i8, ptr %0, i64 16
  %7 = load i64, ptr %6, align 8
  %8 = icmp ugt i64 %5, %7
  br i1 %8, label %9, label %._crit_edge.i

._crit_edge.i:                                    ; preds = %2
  %.pre.i = load ptr, ptr %0, align 8
  br label %22

9:                                                ; preds = %2
  %10 = getelementptr inbounds i8, ptr %0, i64 24
  %11 = load i32, ptr %10, align 8
  %.not.i.i = icmp eq i32 %11, 0
  br i1 %.not.i.i, label %12, label %dbuf_put.exit

12:                                               ; preds = %9
  %13 = mul i64 %7, 3
  %14 = lshr i64 %13, 1
  %spec.select.i.i = tail call i64 @llvm.umax.i64(i64 %14, i64 %5)
  %15 = getelementptr inbounds i8, ptr %0, i64 32
  %16 = load ptr, ptr %15, align 8
  %17 = getelementptr inbounds i8, ptr %0, i64 40
  %18 = load ptr, ptr %17, align 8
  %19 = load ptr, ptr %0, align 8
  %20 = tail call ptr %16(ptr noundef %18, ptr noundef %19, i64 noundef %spec.select.i.i) #19
  %.not22.i.i = icmp eq ptr %20, null
  br i1 %.not22.i.i, label %21, label %dbuf_realloc.exit.i

21:                                               ; preds = %12
  store i32 1, ptr %10, align 8
  br label %dbuf_put.exit

dbuf_realloc.exit.i:                              ; preds = %12
  store ptr %20, ptr %0, align 8
  store i64 %spec.select.i.i, ptr %6, align 8
  %.pre15.i = load i64, ptr %3, align 8
  br label %22

22:                                               ; preds = %dbuf_realloc.exit.i, %._crit_edge.i
  %23 = phi i64 [ %4, %._crit_edge.i ], [ %.pre15.i, %dbuf_realloc.exit.i ]
  %24 = phi ptr [ %.pre.i, %._crit_edge.i ], [ %20, %dbuf_realloc.exit.i ]
  %25 = getelementptr i8, ptr %24, i64 %23
  store i8 %1, ptr %25, align 1
  %26 = load i64, ptr %3, align 8
  %27 = add i64 %26, 1
  store i64 %27, ptr %3, align 8
  br label %dbuf_put.exit

dbuf_put.exit:                                    ; preds = %9, %21, %22
  %.0.i = phi i32 [ 0, %22 ], [ -1, %21 ], [ -1, %9 ]
  ret i32 %.0.i
}